target datalayout = "e-m:e-p270:32:32-p271:32:32-p272:64:64-i64:64-i128:128-f80:128-n8:16:32:64-S128"
target triple = "x86_64-pc-linux-gnu"

@.str = private unnamed_addr constant [39 x i8] c"Usage: hwloc-distrib [options] number\0A\00", align 1
@.str.1 = private unnamed_addr constant [23 x i8] c"Distribution options:\0A\00", align 1
@.str.2 = private unnamed_addr constant [53 x i8] c"  --ignore <type>  Ignore objects of the given type\0A\00", align 1
@.str.3 = private unnamed_addr constant [71 x i8] c"  --from <type>    Distribute starting from objects of the given type\0A\00", align 1
@.str.4 = private unnamed_addr constant [65 x i8] c"  --to <type>      Distribute down to objects of the given type\0A\00", align 1
@.str.5 = private unnamed_addr constant [63 x i8] c"  --at <type>      Distribute among objects of the given type\0A\00", align 1
@.str.6 = private unnamed_addr constant [61 x i8] c"  --reverse        Distribute by starting from last objects\0A\00", align 1
@.str.7 = private unnamed_addr constant [25 x i8] c"Input topology options:\0A\00", align 1
@.str.8 = private unnamed_addr constant [33 x i8] c"  --restrict [nodeset=]<bitmap>\0A\00", align 1
@.str.9 = private unnamed_addr constant [76 x i8] c"                   Restrict the topology to some processors or NUMA nodes.\0A\00", align 1
@.str.10 = private unnamed_addr constant [66 x i8] c"  --restrict-flags <n>  Set the flags to be used during restrict\0A\00", align 1
@.str.11 = private unnamed_addr constant [77 x i8] c"  --disallowed     Include objects disallowed by administrative limitations\0A\00", align 1
@.str.12 = private unnamed_addr constant [21 x i8] c"Formatting options:\0A\00", align 1
@.str.13 = private unnamed_addr constant [57 x i8] c"  --single         Singlify each output to a single CPU\0A\00", align 1
@.str.14 = private unnamed_addr constant [57 x i8] c"  --taskset        Show taskset-specific cpuset strings\0A\00", align 1
@.str.15 = private unnamed_addr constant [131 x i8] c"  --cpuset-output-format <hwloc|list|taskset>\0A  --cof <hwloc|list|taskset>\0A                   Change the format of cpuset outputs\0A\00", align 1
@.str.16 = private unnamed_addr constant [24 x i8] c"Miscellaneous options:\0A\00", align 1
@.str.17 = private unnamed_addr constant [42 x i8] c"  -v --verbose     Show verbose messages\0A\00", align 1
@.str.18 = private unnamed_addr constant [44 x i8] c"  --version        Report version and exit\0A\00", align 1
@.str.19 = private unnamed_addr constant [36 x i8] c"  -h --help        Show this usage\0A\00", align 1
@.str.55 = private unnamed_addr constant [22 x i8] c"  --input <XML file>\0A\00", align 1
@.str.56 = private unnamed_addr constant [57 x i8] c"  -i <XML file>   %*sRead topology from XML file <path>\0A\00", align 1
@.str.57 = private unnamed_addr constant [2 x i8] c" \00", align 1
@.str.58 = private unnamed_addr constant [23 x i8] c"  --input <directory>\0A\00", align 1
@.str.59 = private unnamed_addr constant [78 x i8] c"  -i <directory>  %*sRead topology from chroot containing the /proc and /sys\0A\00", align 1
@.str.60 = private unnamed_addr constant [40 x i8] c"                  %*sof another system\0A\00", align 1
@.str.61 = private unnamed_addr constant [75 x i8] c"  -i <directory>  %*sRead topology from directory containing a CPUID dump\0A\00", align 1
@.str.62 = private unnamed_addr constant [22 x i8] c"  --input \22node:2 2\22\0A\00", align 1
@.str.63 = private unnamed_addr constant [77 x i8] c"  -i \22node:2 2\22   %*sSimulate a fake hierarchy, here with 2 NUMA nodes of 2\0A\00", align 1
@.str.64 = private unnamed_addr constant [33 x i8] c"                  %*sprocessors\0A\00", align 1
@.str.65 = private unnamed_addr constant [27 x i8] c"  --input-format <format>\0A\00", align 1
@.str.66 = private unnamed_addr constant [79 x i8] c"  --if <format>   %*sEnforce input format among xml, fsroot, cpuid, synthetic\0A\00", align 1

; Function Attrs: inlinehint nounwind uwtable
define internal void @hwloc_utils_input_format_usage(ptr noundef %0, i32 noundef %1) #2 {
  %3 = alloca ptr, align 8
  %4 = alloca i32, align 4
  store ptr %0, ptr %3, align 8, !tbaa !9
  store i32 %1, ptr %4, align 4, !tbaa !11
  %5 = load ptr, ptr %3, align 8, !tbaa !9
  %6 = call i32 (ptr, ptr, ...) @fprintf(ptr noundef %5, ptr noundef @.str.55) #11
  %7 = load ptr, ptr %3, align 8, !tbaa !9
  %8 = load i32, ptr %4, align 4, !tbaa !11
  %9 = call i32 (ptr, ptr, ...) @fprintf(ptr noundef %7, ptr noundef @.str.56, i32 noundef %8, ptr noundef @.str.57) #11
  %10 = load ptr, ptr %3, align 8, !tbaa !9
  %11 = call i32 (ptr, ptr, ...) @fprintf(ptr noundef %10, ptr noundef @.str.58) #11
  %12 = load ptr, ptr %3, align 8, !tbaa !9
  %13 = load i32, ptr %4, align 4, !tbaa !11
  %14 = call i32 (ptr, ptr, ...) @fprintf(ptr noundef %12, ptr noundef @.str.59, i32 noundef %13, ptr noundef @.str.57) #11
  %15 = load ptr, ptr %3, align 8, !tbaa !9
  %16 = load i32, ptr %4, align 4, !tbaa !11
  %17 = call i32 (ptr, ptr, ...) @fprintf(ptr noundef %15, ptr noundef @.str.60, i32 noundef %16, ptr noundef @.str.57) #11
  %18 = load ptr, ptr %3, align 8, !tbaa !9
  %19 = call i32 (ptr, ptr, ...) @fprintf(ptr noundef %18, ptr noundef @.str.58) #11
  %20 = load ptr, ptr %3, align 8, !tbaa !9
  %21 = load i32, ptr %4, align 4, !tbaa !11
  %22 = call i32 (ptr, ptr, ...) @fprintf(ptr noundef %20, ptr noundef @.str.61, i32 noundef %21, ptr noundef @.str.57) #11
  %23 = load ptr, ptr %3, align 8, !tbaa !9
  %24 = call i32 (ptr, ptr, ...) @fprintf(ptr noundef %23, ptr noundef @.str.62) #11
  %25 = load ptr, ptr %3, align 8, !tbaa !9
  %26 = load i32, ptr %4, align 4, !tbaa !11
  %27 = call i32 (ptr, ptr, ...) @fprintf(ptr noundef %25, ptr noundef @.str.63, i32 noundef %26, ptr noundef @.str.57) #11
  %28 = load ptr, ptr %3, align 8, !tbaa !9
  %29 = load i32, ptr %4, align 4, !tbaa !11
  %30 = call i32 (ptr, ptr, ...) @fprintf(ptr noundef %28, ptr noundef @.str.64, i32 noundef %29, ptr noundef @.str.57) #11
  %31 = load ptr, ptr %3, align 8, !tbaa !9
  %32 = call i32 (ptr, ptr, ...) @fprintf(ptr noundef %31, ptr noundef @.str.65) #11
  %33 = load ptr, ptr %3, align 8, !tbaa !9
  %34 = load i32, ptr %4, align 4, !tbaa !11
  %35 = call i32 (ptr, ptr, ...) @fprintf(ptr noundef %33, ptr noundef @.str.66, i32 noundef %34, ptr noundef @.str.57) #11
  ret void
}

; Function Attrs: nounwind uwtable
define hidden void @usage(ptr noundef %0, ptr noundef %1) #0 {
  %3 = alloca ptr, align 8
  %4 = alloca ptr, align 8
  store ptr %0, ptr %3, align 8, !tbaa !4
  store ptr %1, ptr %4, align 8, !tbaa !9
  %5 = load ptr, ptr %4, align 8, !tbaa !9
  %6 = call i32 (ptr, ptr, ...) @fprintf(ptr noundef %5, ptr noundef @.str) #11
  %7 = load ptr, ptr %4, align 8, !tbaa !9
  %8 = call i32 (ptr, ptr, ...) @fprintf(ptr noundef %7, ptr noundef @.str.1) #11
  %9 = load ptr, ptr %4, align 8, !tbaa !9
  %10 = call i32 (ptr, ptr, ...) @fprintf(ptr noundef %9, ptr noundef @.str.2) #11
  %11 = load ptr, ptr %4, align 8, !tbaa !9
  %12 = call i32 (ptr, ptr, ...) @fprintf(ptr noundef %11, ptr noundef @.str.3) #11
  %13 = load ptr, ptr %4, align 8, !tbaa !9
  %14 = call i32 (ptr, ptr, ...) @fprintf(ptr noundef %13, ptr noundef @.str.4) #11
  %15 = load ptr, ptr %4, align 8, !tbaa !9
  %16 = call i32 (ptr, ptr, ...) @fprintf(ptr noundef %15, ptr noundef @.str.5) #11
  %17 = load ptr, ptr %4, align 8, !tbaa !9
  %18 = call i32 (ptr, ptr, ...) @fprintf(ptr noundef %17, ptr noundef @.str.6) #11
  %19 = load ptr, ptr %4, align 8, !tbaa !9
  %20 = call i32 (ptr, ptr, ...) @fprintf(ptr noundef %19, ptr noundef @.str.7) #11
  %21 = load ptr, ptr %4, align 8, !tbaa !9
  %22 = call i32 (ptr, ptr, ...) @fprintf(ptr noundef %21, ptr noundef @.str.8) #11
  %23 = load ptr, ptr %4, align 8, !tbaa !9
  %24 = call i32 (ptr, ptr, ...) @fprintf(ptr noundef %23, ptr noundef @.str.9) #11
  %25 = load ptr, ptr %4, align 8, !tbaa !9
  %26 = call i32 (ptr, ptr, ...) @fprintf(ptr noundef %25, ptr noundef @.str.10) #11
  %27 = load ptr, ptr %4, align 8, !tbaa !9
  %28 = call i32 (ptr, ptr, ...) @fprintf(ptr noundef %27, ptr noundef @.str.11) #11
  %29 = load ptr, ptr %4, align 8, !tbaa !9
  call void @hwloc_utils_input_format_usage(ptr noundef %29, i32 noundef 0)
  %30 = load ptr, ptr %4, align 8, !tbaa !9
  %31 = call i32 (ptr, ptr, ...) @fprintf(ptr noundef %30, ptr noundef @.str.12) #11
  %32 = load ptr, ptr %4, align 8, !tbaa !9
  %33 = call i32 (ptr, ptr, ...) @fprintf(ptr noundef %32, ptr noundef @.str.13) #11
  %34 = load ptr, ptr %4, align 8, !tbaa !9
  %35 = call i32 (ptr, ptr, ...) @fprintf(ptr noundef %34, ptr noundef @.str.14) #11
  %36 = load ptr, ptr %4, align 8, !tbaa !9
  %37 = call i32 (ptr, ptr, ...) @fprintf(ptr noundef %36, ptr noundef @.str.15) #11
  %38 = load ptr, ptr %4, align 8, !tbaa !9
  %39 = call i32 (ptr, ptr, ...) @fprintf(ptr noundef %38, ptr noundef @.str.16) #11
  %40 = load ptr, ptr %4, align 8, !tbaa !9
  %41 = call i32 (ptr, ptr, ...) @fprintf(ptr noundef %40, ptr noundef @.str.17) #11
  %42 = load ptr, ptr %4, align 8, !tbaa !9
  %43 = call i32 (ptr, ptr, ...) @fprintf(ptr noundef %42, ptr noundef @.str.18) #11
  %44 = load ptr, ptr %4, align 8, !tbaa !9
  %45 = call i32 (ptr, ptr, ...) @fprintf(ptr noundef %44, ptr noundef @.str.19) #11
  ret void
}