; Function Attrs: nofree nounwind uwtable
define hidden void @usage(ptr readnone captures(none) %0, ptr noundef captures(none) %1) local_unnamed_addr #0 {
  %3 = tail call i64 @fwrite(ptr nonnull @.str, i64 38, i64 1, ptr %1)
  %4 = tail call i64 @fwrite(ptr nonnull @.str.1, i64 22, i64 1, ptr %1)
  %5 = tail call i64 @fwrite(ptr nonnull @.str.2, i64 52, i64 1, ptr %1)
  %6 = tail call i64 @fwrite(ptr nonnull @.str.3, i64 70, i64 1, ptr %1)
  %7 = tail call i64 @fwrite(ptr nonnull @.str.4, i64 64, i64 1, ptr %1)
  %8 = tail call i64 @fwrite(ptr nonnull @.str.5, i64 62, i64 1, ptr %1)
  %9 = tail call i64 @fwrite(ptr nonnull @.str.6, i64 60, i64 1, ptr %1)
  %10 = tail call i64 @fwrite(ptr nonnull @.str.7, i64 24, i64 1, ptr %1)
  %11 = tail call i64 @fwrite(ptr nonnull @.str.8, i64 32, i64 1, ptr %1)
  %12 = tail call i64 @fwrite(ptr nonnull @.str.9, i64 75, i64 1, ptr %1)
  %13 = tail call i64 @fwrite(ptr nonnull @.str.10, i64 65, i64 1, ptr %1)
  %14 = tail call i64 @fwrite(ptr nonnull @.str.11, i64 76, i64 1, ptr %1)
  %15 = tail call i64 @fwrite(ptr nonnull @.str.55, i64 21, i64 1, ptr %1)
  %16 = tail call i32 (ptr, ptr, ...) @fprintf(ptr noundef %1, ptr noundef nonnull @.str.56, i32 noundef 0, ptr noundef nonnull @.str.57) #21
  %17 = tail call i64 @fwrite(ptr nonnull @.str.58, i64 22, i64 1, ptr %1)
  %18 = tail call i32 (ptr, ptr, ...) @fprintf(ptr noundef %1, ptr noundef nonnull @.str.59, i32 noundef 0, ptr noundef nonnull @.str.57) #21
  %19 = tail call i32 (ptr, ptr, ...) @fprintf(ptr noundef %1, ptr noundef nonnull @.str.60, i32 noundef 0, ptr noundef nonnull @.str.57) #21
  %20 = tail call i64 @fwrite(ptr nonnull @.str.58, i64 22, i64 1, ptr %1)
  %21 = tail call i32 (ptr, ptr, ...) @fprintf(ptr noundef %1, ptr noundef nonnull @.str.61, i32 noundef 0, ptr noundef nonnull @.str.57) #21
  %22 = tail call i64 @fwrite(ptr nonnull @.str.62, i64 21, i64 1, ptr %1)
  %23 = tail call i32 (ptr, ptr, ...) @fprintf(ptr noundef %1, ptr noundef nonnull @.str.63, i32 noundef 0, ptr noundef nonnull @.str.57) #21
  %24 = tail call i32 (ptr, ptr, ...) @fprintf(ptr noundef %1, ptr noundef nonnull @.str.64, i32 noundef 0, ptr noundef nonnull @.str.57) #21
  %25 = tail call i64 @fwrite(ptr nonnull @.str.65, i64 26, i64 1, ptr %1)
  %26 = tail call i32 (ptr, ptr, ...) @fprintf(ptr noundef %1, ptr noundef nonnull @.str.66, i32 noundef 0, ptr noundef nonnull @.str.57) #21
  %27 = tail call i64 @fwrite(ptr nonnull @.str.12, i64 20, i64 1, ptr %1)
  %28 = tail call i64 @fwrite(ptr nonnull @.str.13, i64 56, i64 1, ptr %1)
  %29 = tail call i64 @fwrite(ptr nonnull @.str.14, i64 56, i64 1, ptr %1)
  %30 = tail call i64 @fwrite(ptr nonnull @.str.15, i64 130, i64 1, ptr %1)
  %31 = tail call i64 @fwrite(ptr nonnull @.str.16, i64 23, i64 1, ptr %1)
  %32 = tail call i64 @fwrite(ptr nonnull @.str.17, i64 41, i64 1, ptr %1)
  %33 = tail call i64 @fwrite(ptr nonnull @.str.18, i64 43, i64 1, ptr %1)
  %34 = tail call i64 @fwrite(ptr nonnull @.str.19, i64 35, i64 1, ptr %1)
  ret void
}